; Function Attrs: mustprogress uwtable
define internal noundef nonnull ptr @_ZN7testing8internal15TestFactoryImplIN4absl18debugging_internal12_GLOBAL__N_143DemangleRust_TypeBackrefsNestedInTuple_TestEE10CreateTestEv(ptr nonnull readnone align 8 captures(none) %0) unnamed_addr #4 align 2 personality ptr @__gxx_personality_v0 {
  %2 = tail call noalias noundef nonnull dereferenceable(16) ptr @_Znwm(i64 noundef 16) #18
  invoke void @_ZN7testing4TestC2Ev(ptr noundef nonnull align 8 dereferenceable(16) %2)
          to label %3 unwind label %4

3:                                                ; preds = %1
  store ptr getelementptr inbounds nuw inrange(-16, 48) (i8, ptr @_ZTVN4absl18debugging_internal12_GLOBAL__N_143DemangleRust_TypeBackrefsNestedInTuple_TestE, i64 16), ptr %2, align 8, !tbaa !4
  ret ptr %2

4:                                                ; preds = %1
  %5 = landingpad { ptr, i32 }
          cleanup
  tail call void @_ZdlPvm(ptr noundef nonnull %2, i64 noundef 16) #17
  resume { ptr, i32 } %5
}